target datalayout = "e-m:e-p270:32:32-p271:32:32-p272:64:64-i64:64-i128:128-f80:128-n8:16:32:64-S128"
target triple = "x86_64-unknown-linux-gnu"

%struct.gsec_aes_gcm_aead_crypter = type { %struct.gsec_aead_crypter, i64, i64, ptr, ptr }
%struct.gsec_aead_crypter = type { ptr }

@.str.32 = private unnamed_addr constant [33 x i8] c"max_plaintext_length is nullptr.\00", align 1
@.str.33 = private unnamed_addr constant [54 x i8] c"ciphertext_and_tag_length is smaller than tag_length.\00", align 1

; Function Attrs: mustprogress uwtable
define internal noundef i32 @_ZL46gsec_aes_gcm_aead_crypter_max_plaintext_lengthPK17gsec_aead_cryptermPmPPc(ptr noundef %crypter, i64 noundef %ciphertext_and_tag_length, ptr noundef %max_plaintext_length, ptr noundef %error_details) #0 {
entry:
  %retval = alloca i32, align 4
  %crypter.addr = alloca ptr, align 8
  %ciphertext_and_tag_length.addr = alloca i64, align 8
  %max_plaintext_length.addr = alloca ptr, align 8
  %error_details.addr = alloca ptr, align 8
  %aes_gcm_crypter = alloca ptr, align 8
  store ptr %crypter, ptr %crypter.addr, align 8
  store i64 %ciphertext_and_tag_length, ptr %ciphertext_and_tag_length.addr, align 8
  store ptr %max_plaintext_length, ptr %max_plaintext_length.addr, align 8
  store ptr %error_details, ptr %error_details.addr, align 8
  %0 = load ptr, ptr %max_plaintext_length.addr, align 8
  %cmp = icmp eq ptr %0, null
  br i1 %cmp, label %if.then, label %if.end

if.then:                                          ; preds = %entry
  %1 = load ptr, ptr %error_details.addr, align 8
  call void @_ZL21aes_gcm_format_errorsPKcPPc(ptr noundef @.str.32, ptr noundef %1)
  store i32 3, ptr %retval, align 4
  br label %return

if.end:                                           ; preds = %entry
  %2 = load ptr, ptr %crypter.addr, align 8
  store ptr %2, ptr %aes_gcm_crypter, align 8
  %3 = load i64, ptr %ciphertext_and_tag_length.addr, align 8
  %4 = load ptr, ptr %aes_gcm_crypter, align 8
  %tag_length = getelementptr inbounds %struct.gsec_aes_gcm_aead_crypter, ptr %4, i32 0, i32 2
  %5 = load i64, ptr %tag_length, align 8
  %cmp1 = icmp ult i64 %3, %5
  br i1 %cmp1, label %if.then2, label %if.end3

if.then2:                                         ; preds = %if.end
  %6 = load ptr, ptr %max_plaintext_length.addr, align 8
  store i64 0, ptr %6, align 8
  %7 = load ptr, ptr %error_details.addr, align 8
  call void @_ZL21aes_gcm_format_errorsPKcPPc(ptr noundef @.str.33, ptr noundef %7)
  store i32 3, ptr %retval, align 4
  br label %return

if.end3:                                          ; preds = %if.end
  %8 = load i64, ptr %ciphertext_and_tag_length.addr, align 8
  %9 = load ptr, ptr %aes_gcm_crypter, align 8
  %tag_length4 = getelementptr inbounds %struct.gsec_aes_gcm_aead_crypter, ptr %9, i32 0, i32 2
  %10 = load i64, ptr %tag_length4, align 8
  %sub = sub i64 %8, %10
  %11 = load ptr, ptr %max_plaintext_length.addr, align 8
  store i64 %sub, ptr %11, align 8
  store i32 0, ptr %retval, align 4
  br label %return

return:                                           ; preds = %if.end3, %if.then2, %if.then
  %12 = load i32, ptr %retval, align 4
  ret i32 %12
}