; Function Attrs: mustprogress uwtable
define internal noundef i32 @_ZL46gsec_aes_gcm_aead_crypter_max_plaintext_lengthPK17gsec_aead_cryptermPmPPc(ptr nocapture noundef readonly %crypter, i64 noundef %ciphertext_and_tag_length, ptr noundef writeonly %max_plaintext_length, ptr noundef %error_details) #0 {
entry:
  %cmp = icmp eq ptr %max_plaintext_length, null
  br i1 %cmp, label %if.then, label %if.end

if.then:                                          ; preds = %entry
  tail call fastcc void @_ZL21aes_gcm_format_errorsPKcPPc(ptr noundef nonnull @.str.32, ptr noundef %error_details)
  br label %return

if.end:                                           ; preds = %entry
  %tag_length = getelementptr inbounds i8, ptr %crypter, i64 16
  %0 = load i64, ptr %tag_length, align 8
  %cmp1 = icmp ugt i64 %0, %ciphertext_and_tag_length
  br i1 %cmp1, label %if.then2, label %if.end3

if.then2:                                         ; preds = %if.end
  store i64 0, ptr %max_plaintext_length, align 8
  tail call fastcc void @_ZL21aes_gcm_format_errorsPKcPPc(ptr noundef nonnull @.str.33, ptr noundef %error_details)
  br label %return

if.end3:                                          ; preds = %if.end
  %sub = sub i64 %ciphertext_and_tag_length, %0
  store i64 %sub, ptr %max_plaintext_length, align 8
  br label %return

return:                                           ; preds = %if.end3, %if.then2, %if.then
  %retval.0 = phi i32 [ 3, %if.then ], [ 3, %if.then2 ], [ 0, %if.end3 ]
  ret i32 %retval.0
}